target datalayout = "e-m:e-p270:32:32-p271:32:32-p272:64:64-i64:64-i128:128-f80:128-n8:16:32:64-S128"
target triple = "x86_64-pc-linux-gnu"

%struct._zend_alloc_globals = type { ptr }
%struct._zend_mm_heap = type { i32, ptr, i64, i64, [30 x ptr], i64, i64, i64, i32, ptr, ptr, ptr, i32, i32, i32, double, i32, i32, %struct.anon, ptr }
%struct.anon = type { ptr, ptr, ptr }

@alloc_globals = internal global %struct._zend_alloc_globals zeroinitializer, align 8

; Function Attrs: nounwind uwtable
define void @_efree_huge(ptr noundef %0, i64 noundef %1) #0 {
  %3 = alloca ptr, align 8
  %4 = alloca i64, align 8
  store ptr %0, ptr %3, align 8
  store i64 %1, ptr %4, align 8
  br label %5

5:                                                ; preds = %2
  %6 = load ptr, ptr @alloc_globals, align 8
  %7 = getelementptr inbounds %struct._zend_mm_heap, ptr %6, i32 0, i32 0
  %8 = load i32, ptr %7, align 8
  %9 = icmp ne i32 %8, 0
  %10 = xor i1 %9, true
  %11 = xor i1 %10, true
  %12 = zext i1 %11 to i32
  %13 = sext i32 %12 to i64
  %14 = icmp ne i64 %13, 0
  br i1 %14, label %15, label %21

15:                                               ; preds = %5
  %16 = load ptr, ptr @alloc_globals, align 8
  %17 = getelementptr inbounds %struct._zend_mm_heap, ptr %16, i32 0, i32 18
  %18 = getelementptr inbounds %struct.anon, ptr %17, i32 0, i32 1
  %19 = load ptr, ptr %18, align 8
  %20 = load ptr, ptr %3, align 8
  call void %19(ptr noundef %20)
  br label %25

21:                                               ; preds = %5
  br label %22

22:                                               ; preds = %21
  %23 = load ptr, ptr @alloc_globals, align 8
  %24 = load ptr, ptr %3, align 8
  call void @zend_mm_free_huge(ptr noundef %23, ptr noundef %24)
  br label %25

25:                                               ; preds = %22, %15
  ret void
}