; Function Attrs: nounwind uwtable
define void @_efree_huge(ptr noundef %0, i64 noundef %1) local_unnamed_addr #0 {
  %3 = load ptr, ptr @alloc_globals.0, align 8
  %4 = load i32, ptr %3, align 8
  %.not = icmp eq i32 %4, 0
  br i1 %.not, label %8, label %5

5:                                                ; preds = %2
  %6 = getelementptr inbounds i8, ptr %3, i64 368
  %7 = load ptr, ptr %6, align 8
  tail call void %7(ptr noundef %0) #35
  br label %9

8:                                                ; preds = %2
  tail call fastcc void @zend_mm_free_huge(ptr noundef nonnull %3, ptr noundef %0)
  br label %9

9:                                                ; preds = %8, %5
  ret void
}